target datalayout = "e-m:e-p270:32:32-p271:32:32-p272:64:64-i64:64-i128:128-f80:128-n8:16:32:64-S128"
target triple = "x86_64-pc-linux-gnu"

%struct.json_dumper = type { ptr, ptr, i32, i32, i32, i32, [1100 x i8] }
%struct.nstime_t = type { i64, i32 }
%struct._address = type { i32, i32, ptr, ptr }
%struct.epan_dissect = type { ptr, ptr, ptr, %struct._packet_info }
%struct._packet_info = type { ptr, ptr, i32, i32, %struct.nstime_t, %struct.nstime_t, %struct.nstime_t, i8, ptr, ptr, ptr, ptr, %struct._address, %struct._address, %struct._address, %struct._address, %struct._address, %struct._address, i32, ptr, i8, [3 x i8], %struct.anon.4, i32, i32, i32, i32, ptr, i8, ptr, ptr, i16, i16, i32, i32, i16, i32, i32, ptr, ptr, ptr, i8, i8, i16, i16, i16, i32, i16, i16, ptr, ptr, ptr, ptr, ptr, i32, i32 }
%struct.anon.4 = type { i8, [3 x i8] }

@dumper = internal global %struct.json_dumper zeroinitializer, align 8

; Function Attrs: null_pointer_is_valid sspstrong uwtable
define internal zeroext i1 @sharkd_follower_visit_layers_cb(ptr noundef %0, ptr noundef %1, ptr noundef %2) #0 {
  %4 = alloca ptr, align 8
  %5 = alloca ptr, align 8
  %6 = alloca ptr, align 8
  %7 = alloca ptr, align 8
  %8 = alloca ptr, align 8
  %9 = alloca ptr, align 8
  %10 = alloca i32, align 4
  %11 = alloca i32, align 4
  %12 = alloca i32, align 4
  %13 = alloca ptr, align 8
  %14 = alloca ptr, align 8
  store ptr %0, ptr %4, align 8
  store ptr %1, ptr %5, align 8
  store ptr %2, ptr %6, align 8
  call void @llvm.lifetime.start.p0(i64 8, ptr %7) #21
  %15 = load ptr, ptr %5, align 8
  store ptr %15, ptr %7, align 8
  call void @llvm.lifetime.start.p0(i64 8, ptr %8) #21
  %16 = load ptr, ptr %6, align 8
  store ptr %16, ptr %8, align 8
  call void @llvm.lifetime.start.p0(i64 8, ptr %9) #21
  %17 = load ptr, ptr %8, align 8
  %18 = getelementptr inbounds nuw %struct.epan_dissect, ptr %17, i32 0, i32 3
  store ptr %18, ptr %9, align 8
  call void @llvm.lifetime.start.p0(i64 4, ptr %10) #21
  %19 = load ptr, ptr %7, align 8
  %20 = call i32 @get_follow_proto_id(ptr noundef %19)
  store i32 %20, ptr %10, align 4
  call void @llvm.lifetime.start.p0(i64 4, ptr %11) #21
  call void @llvm.lifetime.start.p0(i64 4, ptr %12) #21
  %21 = load ptr, ptr %9, align 8
  %22 = getelementptr inbounds nuw %struct._packet_info, ptr %21, i32 0, i32 39
  %23 = load ptr, ptr %22, align 8
  %24 = load i32, ptr %10, align 4
  %25 = call ptr @proto_get_protocol_filter_name(i32 noundef %24)
  %26 = call zeroext i1 @proto_is_frame_protocol(ptr noundef %23, ptr noundef %25)
  br i1 %26, label %27, label %39

27:                                               ; preds = %3
  call void @llvm.lifetime.start.p0(i64 8, ptr %13) #21
  %28 = load i32, ptr %10, align 4
  %29 = call ptr @find_protocol_by_id(i32 noundef %28)
  %30 = call ptr @proto_get_protocol_short_name(ptr noundef %29)
  store ptr %30, ptr %13, align 8
  call void @llvm.lifetime.start.p0(i64 8, ptr %14) #21
  %31 = load ptr, ptr %7, align 8
  %32 = call ptr @get_follow_conv_func(ptr noundef %31)
  %33 = load ptr, ptr %8, align 8
  %34 = load ptr, ptr %9, align 8
  %35 = call ptr %32(ptr noundef %33, ptr noundef %34, ptr noundef %11, ptr noundef %12)
  store ptr %35, ptr %14, align 8
  call void @json_dumper_begin_array(ptr noundef @dumper)
  %36 = load ptr, ptr %13, align 8
  call void @json_dumper_value_string(ptr noundef @dumper, ptr noundef %36)
  %37 = load ptr, ptr %14, align 8
  call void @json_dumper_value_string(ptr noundef @dumper, ptr noundef %37)
  call void @json_dumper_end_array(ptr noundef @dumper)
  %38 = load ptr, ptr %14, align 8
  call void @g_free(ptr noundef %38)
  call void @llvm.lifetime.end.p0(i64 8, ptr %14) #21
  call void @llvm.lifetime.end.p0(i64 8, ptr %13) #21
  br label %39

39:                                               ; preds = %27, %3
  call void @llvm.lifetime.end.p0(i64 4, ptr %12) #21
  call void @llvm.lifetime.end.p0(i64 4, ptr %11) #21
  call void @llvm.lifetime.end.p0(i64 4, ptr %10) #21
  call void @llvm.lifetime.end.p0(i64 8, ptr %9) #21
  call void @llvm.lifetime.end.p0(i64 8, ptr %8) #21
  call void @llvm.lifetime.end.p0(i64 8, ptr %7) #21
  ret i1 false
}